target datalayout = "e-m:e-p270:32:32-p271:32:32-p272:64:64-i64:64-i128:128-f80:128-n8:16:32:64-S128"
target triple = "x86_64-pc-linux-gnu"

%"class.llvm::msgpack::Writer" = type { %"struct.llvm::support::endian::Writer", i8, [7 x i8] }
%"struct.llvm::support::endian::Writer" = type <{ ptr, i32, [4 x i8] }>

; Function Attrs: mustprogress nounwind uwtable
define linkonce_odr hidden noundef zeroext i8 @_ZN4llvm8byteswapIhvEET_S1_(i8 noundef zeroext %0) #0 comdat {
  %2 = alloca i8, align 1
  store i8 %0, ptr %2, align 1
  %3 = load i8, ptr %2, align 1
  ret i8 %3
}

; Function Attrs: mustprogress nounwind uwtable
define linkonce_odr hidden noundef zeroext i8 @_ZN4llvm3sys15getSwappedBytesEh(i8 noundef zeroext %0) #0 comdat {
  %2 = alloca i8, align 1
  store i8 %0, ptr %2, align 1
  %3 = load i8, ptr %2, align 1
  %4 = call noundef zeroext i8 @_ZN4llvm8byteswapIhvEET_S1_(i8 noundef zeroext %3) #4
  ret i8 %4
}

; Function Attrs: mustprogress nounwind uwtable
define linkonce_odr hidden void @_ZN4llvm3sys13swapByteOrderIhEEvRT_(ptr noundef nonnull align 1 dereferenceable(1) %0) #0 comdat {
  %2 = alloca ptr, align 8
  store ptr %0, ptr %2, align 8
  %3 = load ptr, ptr %2, align 8
  %4 = load i8, ptr %3, align 1
  %5 = call noundef zeroext i8 @_ZN4llvm3sys15getSwappedBytesEh(i8 noundef zeroext %4)
  %6 = load ptr, ptr %2, align 8
  store i8 %5, ptr %6, align 1
  ret void
}

; Function Attrs: mustprogress nounwind uwtable
define linkonce_odr hidden noundef zeroext i8 @_ZN4llvm7support6endian9byte_swapIhEET_S3_NS_10endiannessE(i8 noundef zeroext %0, i32 noundef %1) #0 comdat {
  %3 = alloca i8, align 1
  %4 = alloca i32, align 4
  store i8 %0, ptr %3, align 1
  store i32 %1, ptr %4, align 4
  %5 = load i32, ptr %4, align 4
  %6 = icmp ne i32 %5, 1
  br i1 %6, label %7, label %8

7:                                                ; preds = %2
  call void @_ZN4llvm3sys13swapByteOrderIhEEvRT_(ptr noundef nonnull align 1 dereferenceable(1) %3)
  br label %8

8:                                                ; preds = %7, %2
  %9 = load i8, ptr %3, align 1
  ret i8 %9
}

; Function Attrs: mustprogress nounwind uwtable
define linkonce_odr hidden void @_ZN4llvm7support6endian5writeIhEEvRNS_11raw_ostreamET_NS_10endiannessE(ptr noundef nonnull align 8 dereferenceable(48) %0, i8 noundef zeroext %1, i32 noundef %2) #0 comdat {
  %4 = alloca ptr, align 8
  %5 = alloca i8, align 1
  %6 = alloca i32, align 4
  store ptr %0, ptr %4, align 8
  store i8 %1, ptr %5, align 1
  store i32 %2, ptr %6, align 4
  %7 = load i8, ptr %5, align 1
  %8 = load i32, ptr %6, align 4
  %9 = call noundef zeroext i8 @_ZN4llvm7support6endian9byte_swapIhEET_S3_NS_10endiannessE(i8 noundef zeroext %7, i32 noundef %8)
  store i8 %9, ptr %5, align 1
  %10 = load ptr, ptr %4, align 8
  %11 = call noundef nonnull align 8 dereferenceable(48) ptr @_ZN4llvm11raw_ostream5writeEPKcm(ptr noundef nonnull align 8 dereferenceable(48) %10, ptr noundef %5, i64 noundef 1)
  ret void
}

; Function Attrs: mustprogress nounwind uwtable
define linkonce_odr hidden void @_ZN4llvm7support6endian6Writer5writeIhEEvT_(ptr noundef nonnull align 8 dereferenceable(12) %0, i8 noundef zeroext %1) #0 comdat align 2 {
  %3 = alloca ptr, align 8
  %4 = alloca i8, align 1
  store ptr %0, ptr %3, align 8
  store i8 %1, ptr %4, align 1
  %5 = load ptr, ptr %3, align 8
  %6 = getelementptr inbounds nuw %"struct.llvm::support::endian::Writer", ptr %5, i32 0, i32 0
  %7 = load ptr, ptr %6, align 8
  %8 = load i8, ptr %4, align 1
  %9 = getelementptr inbounds nuw %"struct.llvm::support::endian::Writer", ptr %5, i32 0, i32 1
  %10 = load i32, ptr %9, align 8
  call void @_ZN4llvm7support6endian5writeIhEEvRNS_11raw_ostreamET_NS_10endiannessE(ptr noundef nonnull align 8 dereferenceable(48) %7, i8 noundef zeroext %8, i32 noundef %10)
  ret void
}

; Function Attrs: mustprogress nounwind uwtable
define dso_local void @_ZN4llvm7msgpack6Writer5writeEb(ptr noundef nonnull align 8 dereferenceable(17) %0, i1 noundef zeroext %1) #0 align 2 {
  %3 = alloca ptr, align 8
  %4 = alloca i8, align 1
  store ptr %0, ptr %3, align 8
  %5 = zext i1 %1 to i8
  store i8 %5, ptr %4, align 1
  %6 = load ptr, ptr %3, align 8
  %7 = getelementptr inbounds nuw %"class.llvm::msgpack::Writer", ptr %6, i32 0, i32 0
  %8 = load i8, ptr %4, align 1
  %9 = trunc i8 %8 to i1
  %10 = select i1 %9, i8 -61, i8 -62
  call void @_ZN4llvm7support6endian6Writer5writeIhEEvT_(ptr noundef nonnull align 8 dereferenceable(12) %7, i8 noundef zeroext %10)
  ret void
}