; Function Attrs: mustprogress nounwind uwtable
define dso_local void @_ZN4llvm7msgpack6Writer5writeEb(ptr nocapture noundef nonnull readonly align 8 dereferenceable(17) %0, i1 noundef zeroext %1) local_unnamed_addr #1 align 2 {
  %3 = alloca i8, align 1
  %4 = select i1 %1, i8 -61, i8 -62
  %5 = load ptr, ptr %0, align 8
  call void @llvm.lifetime.start.p0(i64 1, ptr nonnull %3)
  store i8 %4, ptr %3, align 1
  %6 = call noundef nonnull align 8 dereferenceable(48) ptr @_ZN4llvm11raw_ostream5writeEPKcm(ptr noundef nonnull align 8 dereferenceable(48) %5, ptr noundef nonnull %3, i64 noundef 1) #7
  call void @llvm.lifetime.end.p0(i64 1, ptr nonnull %3)
  ret void
}